target datalayout = "e-m:e-p270:32:32-p271:32:32-p272:64:64-i64:64-i128:128-f80:128-n8:16:32:64-S128"
target triple = "x86_64-pc-linux-gnu"

@.str.18 = private unnamed_addr constant [9 x i8] c"\1B[01;31m\00", align 1
@color_output = internal global i32 1, align 4
@stdout = external global ptr, align 8
@.str.33 = private unnamed_addr constant [16 x i8] c"[SIGNAL %d: %s]\00", align 1
@.str.34 = private unnamed_addr constant [10 x i8] c"%s%s\1B[0m\0A\00", align 1
@.str.35 = private unnamed_addr constant [4 x i8] c"%s\0A\00", align 1

; Function Attrs: nounwind uwtable
define internal void @color_print(ptr noundef %0, ptr noundef %1) #0 {
  %3 = alloca ptr, align 8
  %4 = alloca ptr, align 8
  store ptr %0, ptr %3, align 8, !tbaa !3
  store ptr %1, ptr %4, align 8, !tbaa !3
  %5 = load i32, ptr @color_output, align 4, !tbaa !8
  %6 = icmp ne i32 %5, 0
  br i1 %6, label %7, label %11

7:                                                ; preds = %2
  %8 = load ptr, ptr %3, align 8, !tbaa !3
  %9 = load ptr, ptr %4, align 8, !tbaa !3
  %10 = call i32 (ptr, ...) @printf(ptr noundef @.str.34, ptr noundef %8, ptr noundef %9)
  br label %14

11:                                               ; preds = %2
  %12 = load ptr, ptr %4, align 8, !tbaa !3
  %13 = call i32 (ptr, ...) @printf(ptr noundef @.str.35, ptr noundef %12)
  br label %14

14:                                               ; preds = %11, %7
  ret void
}

; Function Attrs: nounwind uwtable
define internal void @sighandler(i32 noundef %0) #0 {
  %2 = alloca i32, align 4
  %3 = alloca [128 x i8], align 16
  store i32 %0, ptr %2, align 4, !tbaa !8
  call void @llvm.lifetime.start.p0(i64 128, ptr %3) #9
  %4 = getelementptr inbounds [128 x i8], ptr %3, i64 0, i64 0
  %5 = load i32, ptr %2, align 4, !tbaa !8
  %6 = load i32, ptr %2, align 4, !tbaa !8
  %7 = call ptr @strsignal(i32 noundef %6) #9
  %8 = call i32 (ptr, i64, ptr, ...) @snprintf(ptr noundef %4, i64 noundef 128, ptr noundef @.str.33, i32 noundef %5, ptr noundef %7) #9
  %9 = getelementptr inbounds [128 x i8], ptr %3, i64 0, i64 0
  call void @color_print(ptr noundef @.str.18, ptr noundef %9)
  %10 = load ptr, ptr @stdout, align 8, !tbaa !31
  %11 = call i32 @fflush(ptr noundef %10)
  %12 = load i32, ptr %2, align 4, !tbaa !8
  %13 = call ptr @signal(i32 noundef %12, ptr noundef null) #9
  %14 = call i32 @getpid() #9
  %15 = load i32, ptr %2, align 4, !tbaa !8
  %16 = call i32 @kill(i32 noundef %14, i32 noundef %15) #9
  call void @llvm.lifetime.end.p0(i64 128, ptr %3) #9
  ret void
}