; Function Attrs: nounwind uwtable
define internal void @sighandler(i32 noundef %0) #6 {
  %2 = alloca [128 x i8], align 16
  call void @llvm.lifetime.start.p0(i64 128, ptr nonnull %2) #14
  %3 = tail call ptr @strsignal(i32 noundef %0) #14
  %4 = call i32 (ptr, i64, ptr, ...) @snprintf(ptr noundef nonnull dereferenceable(1) %2, i64 noundef 128, ptr noundef nonnull @.str.33, i32 noundef %0, ptr noundef %3) #14
  %5 = load i32, ptr @color_output, align 4, !tbaa !3
  %.not.i = icmp eq i32 %5, 0
  br i1 %.not.i, label %8, label %6

6:                                                ; preds = %1
  %7 = call i32 (ptr, ...) @printf(ptr noundef nonnull dereferenceable(1) @.str.34, ptr noundef nonnull @.str.18, ptr noundef nonnull %2)
  br label %color_print.exit

8:                                                ; preds = %1
  %puts.i = call i32 @puts(ptr nonnull dereferenceable(1) %2)
  br label %color_print.exit

color_print.exit:                                 ; preds = %6, %8
  %9 = load ptr, ptr @stdout, align 8, !tbaa !29
  %10 = call i32 @fflush(ptr noundef %9)
  %11 = call ptr @signal(i32 noundef %0, ptr noundef null) #14
  %12 = call i32 @getpid() #14
  %13 = call i32 @kill(i32 noundef %12, i32 noundef %0) #14
  call void @llvm.lifetime.end.p0(i64 128, ptr nonnull %2) #14
  ret void
}